; ModuleID = '60/1373.c'
source_filename = "60/1373.c"
target datalayout = "e-m:e-p270:32:32-p271:32:32-p272:64:64-i64:64-f80:128-n8:16:32:64-S128"
target triple = "x86_64-pc-linux-gnu"

@.str = private unnamed_addr constant [3 x i8] c"%d\00", align 1
@.str.1 = private unnamed_addr constant [6 x i8] c"empty\00", align 1
@.str.2 = private unnamed_addr constant [7 x i8] c"%d %d\0A\00", align 1

; Function Attrs: noinline nounwind uwtable
define dso_local i32 @main() #0 {
  %1 = alloca i32, align 4
  %2 = alloca i32, align 4
  %3 = alloca i32, align 4
  %4 = alloca i32, align 4
  %5 = alloca i32, align 4
  %6 = alloca i32, align 4
  store i32 0, i32* %1, align 4
  %7 = call i32 (i8*, ...) @__isoc99_scanf(i8* getelementptr inbounds ([3 x i8], [3 x i8]* @.str, i64 0, i64 0), i32* %2)
  %8 = load i32, i32* %2, align 4
  %9 = icmp slt i32 %8, 5
  br i1 %9, label %10, label %12

10:                                               ; preds = %0
  %11 = call i32 (i8*, ...) @printf(i8* getelementptr inbounds ([6 x i8], [6 x i8]* @.str.1, i64 0, i64 0))
  br label %56

12:                                               ; preds = %0
  store i32 5, i32* %3, align 4
  br label %13

13:                                               ; preds = %52, %12
  %14 = load i32, i32* %3, align 4
  %15 = load i32, i32* %2, align 4
  %16 = icmp sle i32 %14, %15
  br i1 %16, label %17, label %55

17:                                               ; preds = %13
  store i32 2, i32* %4, align 4
  br label %18

18:                                               ; preds = %48, %17
  %19 = load i32, i32* %4, align 4
  %20 = load i32, i32* %3, align 4
  %21 = sub nsw i32 %20, 2
  %22 = icmp slt i32 %19, %21
  br i1 %22, label %23, label %51

23:                                               ; preds = %18
  %24 = load i32, i32* %3, align 4
  %25 = load i32, i32* %4, align 4
  %26 = srem i32 %24, %25
  %27 = icmp eq i32 %26, 0
  br i1 %27, label %34, label %28

28:                                               ; preds = %23
  %29 = load i32, i32* %3, align 4
  %30 = sub nsw i32 %29, 2
  %31 = load i32, i32* %4, align 4
  %32 = srem i32 %30, %31
  %33 = icmp eq i32 %32, 0
  br i1 %33, label %34, label %35

34:                                               ; preds = %28, %23
  br label %51

35:                                               ; preds = %28
  %36 = load i32, i32* %4, align 4
  %37 = load i32, i32* %3, align 4
  %38 = sub nsw i32 %37, 3
  %39 = icmp eq i32 %36, %38
  br i1 %39, label %40, label %47

40:                                               ; preds = %35
  %41 = load i32, i32* %3, align 4
  %42 = sub nsw i32 %41, 2
  store i32 %42, i32* %5, align 4
  %43 = load i32, i32* %3, align 4
  store i32 %43, i32* %6, align 4
  %44 = load i32, i32* %5, align 4
  %45 = load i32, i32* %6, align 4
  %46 = call i32 (i8*, ...) @printf(i8* getelementptr inbounds ([7 x i8], [7 x i8]* @.str.2, i64 0, i64 0), i32 %44, i32 %45)
  br label %47

47:                                               ; preds = %40, %35
  br label %48

48:                                               ; preds = %47
  %49 = load i32, i32* %4, align 4
  %50 = add nsw i32 %49, 1
  store i32 %50, i32* %4, align 4
  br label %18

51:                                               ; preds = %34, %18
  br label %52

52:                                               ; preds = %51
  %53 = load i32, i32* %3, align 4
  %54 = add nsw i32 %53, 1
  store i32 %54, i32* %3, align 4
  br label %13

55:                                               ; preds = %13
  br label %56

56:                                               ; preds = %55, %10
  %57 = load i32, i32* %1, align 4
  ret i32 %57
}

declare dso_local i32 @__isoc99_scanf(i8*, ...) #1

declare dso_local i32 @printf(i8*, ...) #1


!llvm.module.flags = !{!0}
!llvm.ident = !{!1}

!0 = !{i32 1, !"wchar_size", i32 4}
!1 = !{!"clang version 10.0.0-4ubuntu1 "}
